; Function Attrs: mustprogress nounwind uwtable
define hidden void @_ZN18InterpreterRuntime25SignatureHandlerGenerator10pass_floatEv(ptr nocapture noundef nonnull align 8 dereferenceable(84) %0) unnamed_addr #0 align 2 {
  %2 = alloca %class.Address, align 8
  %3 = alloca %class.Address, align 8
  %4 = alloca %class.Address, align 16
  %5 = alloca %class.Address, align 8
  %6 = alloca %class.Address, align 8
  %7 = alloca %class.Address, align 16
  %8 = getelementptr inbounds i8, ptr %0, i64 48
  %9 = load i32, ptr %8, align 8
  %.neg.i = mul i32 %9, -8
  store <4 x i32> <i32 14, i32 -1, i32 -1, i32 -1>, ptr %4, align 16
  %10 = getelementptr inbounds i8, ptr %4, i64 16
  store i32 %.neg.i, ptr %10, align 16
  %11 = getelementptr inbounds i8, ptr %4, i64 20
  store i8 0, ptr %11, align 4
  %12 = getelementptr inbounds i8, ptr %4, i64 24
  store ptr getelementptr inbounds inrange(-16, 72) (i8, ptr @_ZTV10Relocation, i64 16), ptr %12, align 8
  %13 = getelementptr inbounds i8, ptr %4, i64 32
  store ptr null, ptr %13, align 16
  %14 = getelementptr inbounds i8, ptr %4, i64 40
  store i32 0, ptr %14, align 8
  %15 = getelementptr inbounds i8, ptr %0, i64 72
  %16 = load i32, ptr %15, align 8
  %17 = icmp ult i32 %16, 8
  %18 = getelementptr inbounds i8, ptr %0, i64 64
  %19 = load ptr, ptr %18, align 8
  br i1 %17, label %20, label %32

20:                                               ; preds = %1
  %21 = add nuw nsw i32 %16, 1
  store i32 %21, ptr %15, align 8
  call void @llvm.memcpy.p0.p0.i64(ptr noundef nonnull align 8 dereferenceable(21) %5, ptr noundef nonnull align 16 dereferenceable(21) %4, i64 21, i1 false)
  %22 = getelementptr inbounds i8, ptr %5, i64 24
  %23 = load ptr, ptr getelementptr inbounds inrange(-32, 56) (i8, ptr @_ZTV10Relocation, i64 32), align 8
  call void %23(ptr noundef nonnull align 8 dereferenceable(20) %12, ptr noundef nonnull align 8 dereferenceable(40) %22) #10
  call void @llvm.lifetime.start.p0(i64 64, ptr nonnull %3)
  call void @llvm.memcpy.p0.p0.i64(ptr noundef nonnull align 8 dereferenceable(21) %3, ptr noundef nonnull align 8 dereferenceable(21) %5, i64 21, i1 false)
  %24 = getelementptr inbounds i8, ptr %3, i64 24
  %25 = load ptr, ptr %22, align 8
  %26 = getelementptr inbounds i8, ptr %25, i64 16
  %27 = load ptr, ptr %26, align 8
  call void %27(ptr noundef nonnull align 8 dereferenceable(20) %22, ptr noundef nonnull align 8 dereferenceable(40) %24) #10
  call void @llvm.lifetime.start.p0(i64 64, ptr nonnull %2)
  call void @llvm.memcpy.p0.p0.i64(ptr noundef nonnull align 8 dereferenceable(21) %2, ptr noundef nonnull align 8 dereferenceable(21) %3, i64 21, i1 false)
  %28 = getelementptr inbounds i8, ptr %2, i64 24
  %29 = load ptr, ptr %24, align 8
  %30 = getelementptr inbounds i8, ptr %29, i64 16
  %31 = load ptr, ptr %30, align 8
  call void %31(ptr noundef nonnull align 8 dereferenceable(20) %24, ptr noundef nonnull align 8 dereferenceable(40) %28) #10
  call void @_ZN9Assembler5movssE11XMMRegister7Address(ptr noundef nonnull align 8 dereferenceable(40) %19, i32 %16, ptr noundef nonnull %2) #10
  call void @llvm.lifetime.end.p0(i64 64, ptr nonnull %2)
  call void @llvm.lifetime.end.p0(i64 64, ptr nonnull %3)
  br label %45

32:                                               ; preds = %1
  call void @llvm.memcpy.p0.p0.i64(ptr noundef nonnull align 8 dereferenceable(21) %6, ptr noundef nonnull align 16 dereferenceable(21) %4, i64 21, i1 false)
  %33 = getelementptr inbounds i8, ptr %6, i64 24
  %34 = load ptr, ptr getelementptr inbounds inrange(-32, 56) (i8, ptr @_ZTV10Relocation, i64 32), align 8
  call void %34(ptr noundef nonnull align 8 dereferenceable(20) %12, ptr noundef nonnull align 8 dereferenceable(40) %33) #10
  call void @_ZN9Assembler4movlE8Register7Address(ptr noundef nonnull align 8 dereferenceable(40) %19, i32 0, ptr noundef nonnull %6) #10
  %35 = load ptr, ptr %18, align 8
  %36 = getelementptr inbounds i8, ptr %0, i64 80
  %37 = load i32, ptr %36, align 8
  store <4 x i32> <i32 4, i32 -1, i32 -1, i32 -1>, ptr %7, align 16
  %38 = getelementptr inbounds i8, ptr %7, i64 16
  store i32 %37, ptr %38, align 16
  %39 = getelementptr inbounds i8, ptr %7, i64 20
  store i8 0, ptr %39, align 4
  %40 = getelementptr inbounds i8, ptr %7, i64 24
  store ptr getelementptr inbounds inrange(-16, 72) (i8, ptr @_ZTV10Relocation, i64 16), ptr %40, align 8
  %41 = getelementptr inbounds i8, ptr %7, i64 32
  store ptr null, ptr %41, align 16
  %42 = getelementptr inbounds i8, ptr %7, i64 40
  store i32 0, ptr %42, align 8
  call void @_ZN9Assembler4movlE7Address8Register(ptr noundef nonnull align 8 dereferenceable(40) %35, ptr noundef nonnull %7, i32 0) #10
  %43 = load i32, ptr %36, align 8
  %44 = add nsw i32 %43, 8
  store i32 %44, ptr %36, align 8
  br label %45

45:                                               ; preds = %32, %20
  ret void
}